target datalayout = "e-m:e-p270:32:32-p271:32:32-p272:64:64-i64:64-i128:128-f80:128-n8:16:32:64-S128"
target triple = "x86_64-pc-linux-gnu"

%struct._GLFWwindow = type { ptr, i32, i32, i32, i32, i32, i32, i32, ptr, i32, %struct.GLFWvidmode, ptr, ptr, ptr, i32, i32, i32, i32, i32, i32, i32, i32, i32, i32, [8 x i8], [349 x i8], double, double, i32, %struct._GLFWcontext, %struct.anon.6, %struct._GLFWwindowWayland, %struct._GLFWwindowX11, %struct._GLFWwindowNull }
%struct.GLFWvidmode = type { i32, i32, i32, i32, i32, i32 }
%struct._GLFWcontext = type { i32, i32, i32, i32, i32, i32, i32, i32, i32, i32, i32, ptr, ptr, ptr, ptr, ptr, ptr, ptr, ptr, ptr, %struct.anon.4, %struct.anon.5, %struct._GLFWcontextGLX }
%struct.anon.4 = type { ptr, ptr, ptr, ptr }
%struct.anon.5 = type { ptr, i32, i32, ptr }
%struct._GLFWcontextGLX = type { ptr, i64 }
%struct.anon.6 = type { ptr, ptr, ptr, ptr, ptr, ptr, ptr, ptr, ptr, ptr, ptr, ptr, ptr, ptr, ptr, ptr, ptr }
%struct._GLFWwindowWayland = type { i32, i32, i32, i32, i32, i32, i32, i32, i32, i32, i32, ptr, ptr, %struct.anon.7, %struct.anon.8, %struct.anon.9, %struct.anon.10, ptr, double, double, ptr, i32, ptr, i64, i64, ptr, i32, ptr, ptr, ptr, ptr, ptr, ptr, %struct.anon.11 }
%struct.anon.7 = type { ptr }
%struct.anon.8 = type { i32, i32, i32, i32, i32, i32 }
%struct.anon.9 = type { ptr, ptr, ptr, i32 }
%struct.anon.10 = type { ptr }
%struct.anon.11 = type { i32, ptr, %struct._GLFWfallbackEdgeWayland, %struct._GLFWfallbackEdgeWayland, %struct._GLFWfallbackEdgeWayland, %struct._GLFWfallbackEdgeWayland, ptr }
%struct._GLFWfallbackEdgeWayland = type { ptr, ptr, ptr }
%struct._GLFWwindowX11 = type { i64, i64, i64, ptr, i32, i32, i32, i32, i32, i32, i32, i32, i32, i32, i32, i32, [256 x i64] }
%struct._GLFWwindowNull = type { i32, i32, i32, i32, i32, i32, i32, i32, i32, i32, i32, float }

; Function Attrs: nounwind uwtable
define hidden void @_glfwSetWindowSizeNull(ptr noundef %0, i32 noundef %1, i32 noundef %2) #0 {
  %4 = alloca ptr, align 8
  %5 = alloca i32, align 4
  %6 = alloca i32, align 4
  store ptr %0, ptr %4, align 8, !tbaa !3
  store i32 %1, ptr %5, align 4, !tbaa !88
  store i32 %2, ptr %6, align 4, !tbaa !88
  %7 = load ptr, ptr %4, align 8, !tbaa !3
  %8 = getelementptr inbounds nuw %struct._GLFWwindow, ptr %7, i32 0, i32 11
  %9 = load ptr, ptr %8, align 8, !tbaa !25
  %10 = icmp ne ptr %9, null
  br i1 %10, label %11, label %12

11:                                               ; preds = %3
  br label %42

12:                                               ; preds = %3
  %13 = load ptr, ptr %4, align 8, !tbaa !3
  %14 = getelementptr inbounds nuw %struct._GLFWwindow, ptr %13, i32 0, i32 33
  %15 = getelementptr inbounds nuw %struct._GLFWwindowNull, ptr %14, i32 0, i32 2
  %16 = load i32, ptr %15, align 8, !tbaa !74
  %17 = load i32, ptr %5, align 4, !tbaa !88
  %18 = icmp ne i32 %16, %17
  br i1 %18, label %26, label %19

19:                                               ; preds = %12
  %20 = load ptr, ptr %4, align 8, !tbaa !3
  %21 = getelementptr inbounds nuw %struct._GLFWwindow, ptr %20, i32 0, i32 33
  %22 = getelementptr inbounds nuw %struct._GLFWwindowNull, ptr %21, i32 0, i32 3
  %23 = load i32, ptr %22, align 4, !tbaa !76
  %24 = load i32, ptr %6, align 4, !tbaa !88
  %25 = icmp ne i32 %23, %24
  br i1 %25, label %26, label %42

26:                                               ; preds = %19, %12
  %27 = load i32, ptr %5, align 4, !tbaa !88
  %28 = load ptr, ptr %4, align 8, !tbaa !3
  %29 = getelementptr inbounds nuw %struct._GLFWwindow, ptr %28, i32 0, i32 33
  %30 = getelementptr inbounds nuw %struct._GLFWwindowNull, ptr %29, i32 0, i32 2
  store i32 %27, ptr %30, align 8, !tbaa !74
  %31 = load i32, ptr %6, align 4, !tbaa !88
  %32 = load ptr, ptr %4, align 8, !tbaa !3
  %33 = getelementptr inbounds nuw %struct._GLFWwindow, ptr %32, i32 0, i32 33
  %34 = getelementptr inbounds nuw %struct._GLFWwindowNull, ptr %33, i32 0, i32 3
  store i32 %31, ptr %34, align 4, !tbaa !76
  %35 = load ptr, ptr %4, align 8, !tbaa !3
  %36 = load i32, ptr %5, align 4, !tbaa !88
  %37 = load i32, ptr %6, align 4, !tbaa !88
  call void @_glfwInputFramebufferSize(ptr noundef %35, i32 noundef %36, i32 noundef %37)
  %38 = load ptr, ptr %4, align 8, !tbaa !3
  call void @_glfwInputWindowDamage(ptr noundef %38)
  %39 = load ptr, ptr %4, align 8, !tbaa !3
  %40 = load i32, ptr %5, align 4, !tbaa !88
  %41 = load i32, ptr %6, align 4, !tbaa !88
  call void @_glfwInputWindowSize(ptr noundef %39, i32 noundef %40, i32 noundef %41)
  br label %42

42:                                               ; preds = %11, %26, %19
  ret void
}

; Function Attrs: nounwind uwtable
define internal void @applySizeLimits(ptr noundef %0, ptr noundef %1, ptr noundef %2) #0 {
  %4 = alloca ptr, align 8
  %5 = alloca ptr, align 8
  %6 = alloca ptr, align 8
  %7 = alloca float, align 4
  store ptr %0, ptr %4, align 8, !tbaa !3
  store ptr %1, ptr %5, align 8, !tbaa !176
  store ptr %2, ptr %6, align 8, !tbaa !176
  %8 = load ptr, ptr %4, align 8, !tbaa !3
  %9 = getelementptr inbounds nuw %struct._GLFWwindow, ptr %8, i32 0, i32 18
  %10 = load i32, ptr %9, align 8, !tbaa !178
  %11 = icmp ne i32 %10, -1
  br i1 %11, label %12, label %34

12:                                               ; preds = %3
  %13 = load ptr, ptr %4, align 8, !tbaa !3
  %14 = getelementptr inbounds nuw %struct._GLFWwindow, ptr %13, i32 0, i32 19
  %15 = load i32, ptr %14, align 4, !tbaa !179
  %16 = icmp ne i32 %15, -1
  br i1 %16, label %17, label %34

17:                                               ; preds = %12
  call void @llvm.lifetime.start.p0(i64 4, ptr %7) #3
  %18 = load ptr, ptr %4, align 8, !tbaa !3
  %19 = getelementptr inbounds nuw %struct._GLFWwindow, ptr %18, i32 0, i32 18
  %20 = load i32, ptr %19, align 8, !tbaa !178
  %21 = sitofp i32 %20 to float
  %22 = load ptr, ptr %4, align 8, !tbaa !3
  %23 = getelementptr inbounds nuw %struct._GLFWwindow, ptr %22, i32 0, i32 19
  %24 = load i32, ptr %23, align 4, !tbaa !179
  %25 = sitofp i32 %24 to float
  %26 = fdiv float %21, %25
  store float %26, ptr %7, align 4, !tbaa !180
  %27 = load ptr, ptr %5, align 8, !tbaa !176
  %28 = load i32, ptr %27, align 4, !tbaa !88
  %29 = sitofp i32 %28 to float
  %30 = load float, ptr %7, align 4, !tbaa !180
  %31 = fdiv float %29, %30
  %32 = fptosi float %31 to i32
  %33 = load ptr, ptr %6, align 8, !tbaa !176
  store i32 %32, ptr %33, align 4, !tbaa !88
  call void @llvm.lifetime.end.p0(i64 4, ptr %7) #3
  br label %34

34:                                               ; preds = %17, %12, %3
  %35 = load ptr, ptr %4, align 8, !tbaa !3
  %36 = getelementptr inbounds nuw %struct._GLFWwindow, ptr %35, i32 0, i32 14
  %37 = load i32, ptr %36, align 8, !tbaa !181
  %38 = icmp ne i32 %37, -1
  br i1 %38, label %39, label %47

39:                                               ; preds = %34
  %40 = load ptr, ptr %5, align 8, !tbaa !176
  %41 = load i32, ptr %40, align 4, !tbaa !88
  %42 = load ptr, ptr %4, align 8, !tbaa !3
  %43 = getelementptr inbounds nuw %struct._GLFWwindow, ptr %42, i32 0, i32 14
  %44 = load i32, ptr %43, align 8, !tbaa !181
  %45 = call i32 @_glfw_max(i32 noundef %41, i32 noundef %44)
  %46 = load ptr, ptr %5, align 8, !tbaa !176
  store i32 %45, ptr %46, align 4, !tbaa !88
  br label %61

47:                                               ; preds = %34
  %48 = load ptr, ptr %4, align 8, !tbaa !3
  %49 = getelementptr inbounds nuw %struct._GLFWwindow, ptr %48, i32 0, i32 16
  %50 = load i32, ptr %49, align 8, !tbaa !182
  %51 = icmp ne i32 %50, -1
  br i1 %51, label %52, label %60

52:                                               ; preds = %47
  %53 = load ptr, ptr %5, align 8, !tbaa !176
  %54 = load i32, ptr %53, align 4, !tbaa !88
  %55 = load ptr, ptr %4, align 8, !tbaa !3
  %56 = getelementptr inbounds nuw %struct._GLFWwindow, ptr %55, i32 0, i32 16
  %57 = load i32, ptr %56, align 8, !tbaa !182
  %58 = call i32 @_glfw_min(i32 noundef %54, i32 noundef %57)
  %59 = load ptr, ptr %5, align 8, !tbaa !176
  store i32 %58, ptr %59, align 4, !tbaa !88
  br label %60

60:                                               ; preds = %52, %47
  br label %61

61:                                               ; preds = %60, %39
  %62 = load ptr, ptr %4, align 8, !tbaa !3
  %63 = getelementptr inbounds nuw %struct._GLFWwindow, ptr %62, i32 0, i32 15
  %64 = load i32, ptr %63, align 4, !tbaa !183
  %65 = icmp ne i32 %64, -1
  br i1 %65, label %66, label %74

66:                                               ; preds = %61
  %67 = load ptr, ptr %6, align 8, !tbaa !176
  %68 = load i32, ptr %67, align 4, !tbaa !88
  %69 = load ptr, ptr %4, align 8, !tbaa !3
  %70 = getelementptr inbounds nuw %struct._GLFWwindow, ptr %69, i32 0, i32 15
  %71 = load i32, ptr %70, align 4, !tbaa !183
  %72 = call i32 @_glfw_min(i32 noundef %68, i32 noundef %71)
  %73 = load ptr, ptr %6, align 8, !tbaa !176
  store i32 %72, ptr %73, align 4, !tbaa !88
  br label %88

74:                                               ; preds = %61
  %75 = load ptr, ptr %4, align 8, !tbaa !3
  %76 = getelementptr inbounds nuw %struct._GLFWwindow, ptr %75, i32 0, i32 17
  %77 = load i32, ptr %76, align 4, !tbaa !184
  %78 = icmp ne i32 %77, -1
  br i1 %78, label %79, label %87

79:                                               ; preds = %74
  %80 = load ptr, ptr %6, align 8, !tbaa !176
  %81 = load i32, ptr %80, align 4, !tbaa !88
  %82 = load ptr, ptr %4, align 8, !tbaa !3
  %83 = getelementptr inbounds nuw %struct._GLFWwindow, ptr %82, i32 0, i32 17
  %84 = load i32, ptr %83, align 4, !tbaa !184
  %85 = call i32 @_glfw_max(i32 noundef %81, i32 noundef %84)
  %86 = load ptr, ptr %6, align 8, !tbaa !176
  store i32 %85, ptr %86, align 4, !tbaa !88
  br label %87

87:                                               ; preds = %79, %74
  br label %88

88:                                               ; preds = %87, %66
  ret void
}

; Function Attrs: nounwind uwtable
define hidden void @_glfwSetWindowSizeLimitsNull(ptr noundef %0, i32 noundef %1, i32 noundef %2, i32 noundef %3, i32 noundef %4) #0 {
  %6 = alloca ptr, align 8
  %7 = alloca i32, align 4
  %8 = alloca i32, align 4
  %9 = alloca i32, align 4
  %10 = alloca i32, align 4
  %11 = alloca i32, align 4
  %12 = alloca i32, align 4
  store ptr %0, ptr %6, align 8, !tbaa !3
  store i32 %1, ptr %7, align 4, !tbaa !88
  store i32 %2, ptr %8, align 4, !tbaa !88
  store i32 %3, ptr %9, align 4, !tbaa !88
  store i32 %4, ptr %10, align 4, !tbaa !88
  call void @llvm.lifetime.start.p0(i64 4, ptr %11) #3
  %13 = load ptr, ptr %6, align 8, !tbaa !3
  %14 = getelementptr inbounds nuw %struct._GLFWwindow, ptr %13, i32 0, i32 33
  %15 = getelementptr inbounds nuw %struct._GLFWwindowNull, ptr %14, i32 0, i32 2
  %16 = load i32, ptr %15, align 8, !tbaa !74
  store i32 %16, ptr %11, align 4, !tbaa !88
  call void @llvm.lifetime.start.p0(i64 4, ptr %12) #3
  %17 = load ptr, ptr %6, align 8, !tbaa !3
  %18 = getelementptr inbounds nuw %struct._GLFWwindow, ptr %17, i32 0, i32 33
  %19 = getelementptr inbounds nuw %struct._GLFWwindowNull, ptr %18, i32 0, i32 3
  %20 = load i32, ptr %19, align 4, !tbaa !76
  store i32 %20, ptr %12, align 4, !tbaa !88
  %21 = load ptr, ptr %6, align 8, !tbaa !3
  call void @applySizeLimits(ptr noundef %21, ptr noundef %11, ptr noundef %12)
  %22 = load ptr, ptr %6, align 8, !tbaa !3
  %23 = load i32, ptr %11, align 4, !tbaa !88
  %24 = load i32, ptr %12, align 4, !tbaa !88
  call void @_glfwSetWindowSizeNull(ptr noundef %22, i32 noundef %23, i32 noundef %24)
  call void @llvm.lifetime.end.p0(i64 4, ptr %12) #3
  call void @llvm.lifetime.end.p0(i64 4, ptr %11) #3
  ret void
}