; Function Attrs: nounwind uwtable
define hidden void @_glfwSetWindowSizeLimitsNull(ptr noundef %0, i32 noundef %1, i32 noundef %2, i32 noundef %3, i32 noundef %4) local_unnamed_addr #0 {
  %6 = getelementptr inbounds nuw i8, ptr %0, i64 3376
  %7 = load i32, ptr %6, align 8, !tbaa !62
  %8 = getelementptr inbounds nuw i8, ptr %0, i64 3380
  %9 = load i32, ptr %8, align 4, !tbaa !63
  %10 = getelementptr inbounds nuw i8, ptr %0, i64 120
  %11 = load i32, ptr %10, align 8, !tbaa !165
  %.not.i = icmp eq i32 %11, -1
  br i1 %.not.i, label %22, label %12

12:                                               ; preds = %5
  %13 = getelementptr inbounds nuw i8, ptr %0, i64 124
  %14 = load i32, ptr %13, align 4, !tbaa !166
  %.not28.i = icmp eq i32 %14, -1
  br i1 %.not28.i, label %22, label %15

15:                                               ; preds = %12
  %16 = sitofp i32 %11 to float
  %17 = sitofp i32 %14 to float
  %18 = fdiv float %16, %17
  %19 = sitofp i32 %7 to float
  %20 = fdiv float %19, %18
  %21 = fptosi float %20 to i32
  br label %22

22:                                               ; preds = %15, %12, %5
  %.0 = phi i32 [ %9, %5 ], [ %9, %12 ], [ %21, %15 ]
  %23 = getelementptr inbounds nuw i8, ptr %0, i64 104
  %24 = load i32, ptr %23, align 8, !tbaa !167
  %.not29.i = icmp eq i32 %24, -1
  br i1 %.not29.i, label %27, label %25

25:                                               ; preds = %22
  %26 = tail call i32 @_glfw_max(i32 noundef %7, i32 noundef %24) #11
  br label %.sink.split.i

27:                                               ; preds = %22
  %28 = getelementptr inbounds nuw i8, ptr %0, i64 112
  %29 = load i32, ptr %28, align 8, !tbaa !168
  %.not30.i = icmp eq i32 %29, -1
  br i1 %.not30.i, label %.sink.split.i, label %30

30:                                               ; preds = %27
  %31 = tail call i32 @_glfw_min(i32 noundef %7, i32 noundef %29) #11
  br label %.sink.split.i

.sink.split.i:                                    ; preds = %25, %30, %27
  %.011 = phi i32 [ %7, %27 ], [ %31, %30 ], [ %26, %25 ]
  %32 = getelementptr inbounds nuw i8, ptr %0, i64 108
  %33 = load i32, ptr %32, align 4, !tbaa !169
  %.not31.i = icmp eq i32 %33, -1
  br i1 %.not31.i, label %36, label %34

34:                                               ; preds = %.sink.split.i
  %35 = tail call i32 @_glfw_min(i32 noundef %.0, i32 noundef %33) #11
  br label %applySizeLimits.exit

36:                                               ; preds = %.sink.split.i
  %37 = getelementptr inbounds nuw i8, ptr %0, i64 116
  %38 = load i32, ptr %37, align 4, !tbaa !170
  %.not32.i = icmp eq i32 %38, -1
  br i1 %.not32.i, label %applySizeLimits.exit, label %39

39:                                               ; preds = %36
  %40 = tail call i32 @_glfw_max(i32 noundef %.0, i32 noundef %38) #11
  br label %applySizeLimits.exit

applySizeLimits.exit:                             ; preds = %34, %39, %36
  %.1 = phi i32 [ %.0, %36 ], [ %40, %39 ], [ %35, %34 ]
  %41 = getelementptr inbounds nuw i8, ptr %0, i64 80
  %42 = load ptr, ptr %41, align 8, !tbaa !3
  %.not.i4 = icmp eq ptr %42, null
  br i1 %.not.i4, label %43, label %_glfwSetWindowSizeNull.exit

43:                                               ; preds = %applySizeLimits.exit
  %44 = load i32, ptr %6, align 8, !tbaa !62
  %.not15.i = icmp eq i32 %44, %.011
  br i1 %.not15.i, label %45, label %47

45:                                               ; preds = %43
  %46 = load i32, ptr %8, align 4, !tbaa !63
  %.not16.i = icmp eq i32 %46, %.1
  br i1 %.not16.i, label %_glfwSetWindowSizeNull.exit, label %47

47:                                               ; preds = %45, %43
  store i32 %.011, ptr %6, align 8, !tbaa !62
  store i32 %.1, ptr %8, align 4, !tbaa !63
  tail call void @_glfwInputFramebufferSize(ptr noundef nonnull %0, i32 noundef %.011, i32 noundef %.1) #11
  tail call void @_glfwInputWindowDamage(ptr noundef nonnull %0) #11
  tail call void @_glfwInputWindowSize(ptr noundef nonnull %0, i32 noundef %.011, i32 noundef %.1) #11
  br label %_glfwSetWindowSizeNull.exit

_glfwSetWindowSizeNull.exit:                      ; preds = %applySizeLimits.exit, %45, %47
  ret void
}